{
   Dynamic Linker Bug
   Memcheck:Cond
   fun:_dl_relocate_object
   fun:dl_main
   fun:_dl_sysdep_start
   fun:_dl_start
   obj:/lib/ld-2.6.so
}
{
   <insert a suppression name here>
   Memcheck:Cond
   fun:strlen
   fun:_ZNSsC1EPKcRKSaIcE
   fun:_Z11generateKeyv
   fun:_Z14TestLinkedListb
   fun:main
}
{
   <insert a suppression name here>
   Memcheck:Cond
   fun:_ZNKSs7compareERKSs
   fun:_ZStneIcSt11char_traitsIcESaIcEEbRKSbIT_T0_T1_ES8_
   fun:_Z14TestLinkedListb
   fun:main
}
{
   <insert a suppression name here>
   Memcheck:Cond
   fun:_ZNKSs7compareERKSs
   fun:_ZStneIcSt11char_traitsIcESaIcEEbRKSbIT_T0_T1_ES8_
   fun:_Z14TestLinkedListb
   fun:main
}
{
   <insert a suppression name here>
   Memcheck:Cond
   fun:_ZNKSs7compareERKSs
   fun:_ZStneIcSt11char_traitsIcESaIcEEbRKSbIT_T0_T1_ES8_
   fun:_Z12CompareListsRK10LinkedListRSt4listISsSaISsEE
   fun:_Z14TestLinkedListb
   fun:main
}
{
   <insert a suppression name here>
   Memcheck:Cond
   fun:_ZNKSs7compareERKSs
   fun:_ZStneIcSt11char_traitsIcESaIcEEbRKSbIT_T0_T1_ES8_
   fun:_Z12CompareListsRK10LinkedListRSt4listISsSaISsEE
   fun:_Z14TestLinkedListb
   fun:main
}
{
   <insert a suppression name here>
   Memcheck:Cond
   fun:_ZNKSs7compareERKSs
   fun:_ZStneIcSt11char_traitsIcESaIcEEbRKSbIT_T0_T1_ES8_
   fun:_Z12CompareListsRK10LinkedListRSt4listISsSaISsEE
   fun:_Z14TestLinkedListb
   fun:main
}
{
   <insert a suppression name here>
   Memcheck:Cond
   fun:_ZNKSs7compareERKSs
   fun:_ZStneIcSt11char_traitsIcESaIcEEbRKSbIT_T0_T1_ES8_
   fun:_Z12CompareListsRK10LinkedListRSt4listISsSaISsEE
   fun:_Z14TestLinkedListb
   fun:main
}
{
   <insert a suppression name here>
   Memcheck:Cond
   fun:_ZNKSs7compareERKSs
   fun:_ZStneIcSt11char_traitsIcESaIcEEbRKSbIT_T0_T1_ES8_
   fun:_Z12CompareListsRK10LinkedListRSt4listISsSaISsEE
   fun:_Z14TestLinkedListb
   fun:main
}
{
   <insert a suppression name here>
   Memcheck:Cond
   fun:_ZNKSs7compareERKSs
   fun:_ZSteqIcSt11char_traitsIcESaIcEEbRKSbIT_T0_T1_ES8_
   fun:_ZNK10LinkedList4FindERKSsP6LLNode
   fun:_Z14TestLinkedListb
   fun:main
}
{
   <insert a suppression name here>
   Memcheck:Cond
   fun:_ZNKSs7compareERKSs
   fun:_ZStneIcSt11char_traitsIcESaIcEEbRKSbIT_T0_T1_ES8_
   fun:_Z14TestLinkedListb
   fun:main
}
{
   <insert a suppression name here>
   Memcheck:Cond
   fun:_ZNKSs7compareERKSs
   fun:_ZSteqIcSt11char_traitsIcESaIcEEbRKSbIT_T0_T1_ES8_
   fun:_ZNK10LinkedList4FindERKSsP6LLNode
   fun:_Z14TestLinkedListb
   fun:main
}
{
   <insert a suppression name here>
   Memcheck:Cond
   fun:strlen
   fun:_ZNSsC1EPKcRKSaIcE
   fun:_Z11generateKeyv
   fun:_Z14TestLinkedListb
   fun:main
}
{
   <insert a suppression name here>
   Memcheck:Cond
   fun:_ZNKSs7compareERKSs
   fun:_ZSteqIcSt11char_traitsIcESaIcEEbRKSbIT_T0_T1_ES8_
   fun:_ZNK10LinkedList4FindERKSsP6LLNode
   fun:_Z14TestLinkedListb
   fun:main
}
{
   <insert a suppression name here>
   Memcheck:Cond
   fun:_ZNKSs7compareERKSs
   fun:_ZSteqIcSt11char_traitsIcESaIcEEbRKSbIT_T0_T1_ES8_
   fun:_ZSt6__findISt14_List_iteratorISsESsET_S2_S2_RKT0_St18input_iterator_tag
   fun:_ZSt4findISt14_List_iteratorISsESsET_S2_S2_RKT0_
   fun:_Z14TestLinkedListb
   fun:main
}
{
   <insert a suppression name here>
   Memcheck:Cond
   fun:_ZNKSs7compareERKSs
   fun:_ZStneIcSt11char_traitsIcESaIcEEbRKSbIT_T0_T1_ES8_
   fun:_Z14TestLinkedListb
   fun:main
}
{
   <insert a suppression name here>
   Memcheck:Cond
   fun:_ZNKSs7compareERKSs
   fun:_ZSteqIcSt11char_traitsIcESaIcEEbRKSbIT_T0_T1_ES8_
   fun:_ZNK10LinkedList4FindERKSsP6LLNode
   fun:_Z14TestLinkedListb
   fun:main
}
{
   <insert a suppression name here>
   Memcheck:Cond
   fun:strlen
   fun:_ZNSsC1EPKcRKSaIcE
   fun:_Z11generateKeyv
   fun:_Z7TestBSTb
   fun:main
}
{
   <insert a suppression name here>
   Memcheck:Cond
   fun:_ZNKSs7compareERKSs
   fun:_ZStneIcSt11char_traitsIcESaIcEEbRKSbIT_T0_T1_ES8_
   fun:_Z7TestBSTb
   fun:main
}
{
   <insert a suppression name here>
   Memcheck:Cond
   fun:_ZNKSs7compareERKSs
   fun:_ZSteqIcSt11char_traitsIcESaIcEEbRKSbIT_T0_T1_ES8_
}
{
   <insert a suppression name here>
   Memcheck:Cond
   fun:_ZNKSs7compareERKSs
   fun:_ZSteqIcSt11char_traitsIcESaIcEEbRKSbIT_T0_T1_ES8_
}
{
   <insert a suppression name here>
   Memcheck:Cond
   fun:_ZNKSs7compareERKSs
   fun:_ZStneIcSt11char_traitsIcESaIcEEbRKSbIT_T0_T1_ES8_
   fun:_Z7TestBSTb
   fun:main
}
{
   <insert a suppression name here>
   Memcheck:Cond
   fun:strlen
   fun:_ZNSsC1EPKcRKSaIcE
   fun:_Z11generateKeyv
   fun:_Z7TestBSTb
   fun:main
}
{
   <insert a suppression name here>
   Memcheck:Cond
   fun:_ZNKSs7compareERKSs
   fun:_ZStneIcSt11char_traitsIcESaIcEEbRKSbIT_T0_T1_ES8_
}
{
   <insert a suppression name here>
   Memcheck:Cond
   fun:strlen
   fun:_ZNSsC1EPKcRKSaIcE
}
{
   <insert a suppression name here>
   Memcheck:Cond
   fun:_ZNKSs7compareERKSs
   fun:_ZStltIcSt11char_traitsIcESaIcEEbRKSbIT_T0_T1_ES8_
}
{
   <insert a suppression name here>
   Memcheck:Cond
   fun:_ZNKSs7compareERKSs
   fun:_ZStltIcSt11char_traitsIcESaIcEEbRKSbIT_T0_T1_ES8_
}
{
   <insert a suppression name here>
   Memcheck:Cond
   fun:_ZNKSs7compareERKSs
}
{
   <insert a suppression name here>
   Memcheck:Cond
   fun:strlen
   fun:_ZNSsC1EPKcRKSaIcE
   fun:_Z11generateKeyv
   fun:_Z14TestLinkedListb
   fun:main
}
{
   <insert a suppression name here>
   Memcheck:Cond
   fun:_ZNKSs7compareERKSs
   fun:_ZStneIcSt11char_traitsIcESaIcEEbRKSbIT_T0_T1_ES8_
   fun:_Z14TestLinkedListb
   fun:main
}
{
   <insert a suppression name here>
   Memcheck:Cond
   fun:_ZNKSs7compareERKSs
   fun:_ZStneIcSt11char_traitsIcESaIcEEbRKSbIT_T0_T1_ES8_
   fun:_Z14TestLinkedListb
   fun:main
}
{
   <insert a suppression name here>
   Memcheck:Cond
   fun:_ZNKSs7compareERKSs
   fun:_ZStneIcSt11char_traitsIcESaIcEEbRKSbIT_T0_T1_ES8_
   fun:_Z12CompareListsRK10LinkedListRSt4listISsSaISsEE
   fun:_Z14TestLinkedListb
   fun:main
}
{
   <insert a suppression name here>
   Memcheck:Cond
   fun:_ZNKSs7compareERKSs
   fun:_ZStneIcSt11char_traitsIcESaIcEEbRKSbIT_T0_T1_ES8_
   fun:_Z12CompareListsRK10LinkedListRSt4listISsSaISsEE
   fun:_Z14TestLinkedListb
   fun:main
}
{
   <insert a suppression name here>
   Memcheck:Cond
   fun:_ZNKSs7compareERKSs
   fun:_ZStneIcSt11char_traitsIcESaIcEEbRKSbIT_T0_T1_ES8_
   fun:_Z12CompareListsRK10LinkedListRSt4listISsSaISsEE
   fun:_Z14TestLinkedListb
   fun:main
}
{
   <insert a suppression name here>
   Memcheck:Cond
   fun:_ZNKSs7compareERKSs
   fun:_ZStneIcSt11char_traitsIcESaIcEEbRKSbIT_T0_T1_ES8_
   fun:_Z12CompareListsRK10LinkedListRSt4listISsSaISsEE
   fun:_Z14TestLinkedListb
   fun:main
}
{
   <insert a suppression name here>
   Memcheck:Cond
   fun:_ZNKSs7compareERKSs
   fun:_ZStneIcSt11char_traitsIcESaIcEEbRKSbIT_T0_T1_ES8_
}
{
   <insert a suppression name here>
   Memcheck:Cond
   fun:_ZNKSs7compareERKSs
   fun:_ZNK10LinkedList4FindERKSsP6LLNode
   fun:_Z14TestLinkedListb
   fun:main
}
{
   <insert a suppression name here>
   Memcheck:Cond
   fun:_ZNKSs7compareERKSs
   fun:_ZStneIcSt11char_traitsIcESaIcEEbRKSbIT_T0_T1_ES8_
   fun:_Z14TestLinkedListb
   fun:main
}
{
   <insert a suppression name here>
   Memcheck:Cond
   fun:_ZNKSs7compareERKSs
   fun:_ZNK10LinkedList4FindERKSsP6LLNode
   fun:_Z14TestLinkedListb
   fun:main
}
{
   <insert a suppression name here>
   Memcheck:Cond
   fun:strlen
   fun:_ZNSsC1EPKcRKSaIcE
   fun:_Z11generateKeyv
   fun:_Z14TestLinkedListb
   fun:main
}
{
   <insert a suppression name here>
   Memcheck:Cond
   fun:_ZNKSs7compareERKSs
}
{
   <insert a suppression name here>
   Memcheck:Cond
   fun:_ZNKSs7compareERKSs
   fun:_ZSteqIcSt11char_traitsIcESaIcEEbRKSbIT_T0_T1_ES8_
}
{
   <insert a suppression name here>
   Memcheck:Cond
   fun:_ZNKSs7compareERKSs
   fun:_ZStneIcSt11char_traitsIcESaIcEEbRKSbIT_T0_T1_ES8_
   fun:_Z14TestLinkedListb
   fun:main
}
{
   <insert a suppression name here>
   Memcheck:Cond
   fun:_ZNKSs7compareERKSs
   fun:_ZNK10LinkedList4FindERKSsP6LLNode
   fun:_Z14TestLinkedListb
   fun:main
}
{
   <insert a suppression name here>
   Memcheck:Cond
   fun:strlen
   fun:_ZNSsC1EPKcRKSaIcE
   fun:_Z11generateKeyv
   fun:_Z7TestBSTb
   fun:main
}
{
   <insert a suppression name here>
   Memcheck:Cond
   fun:_ZNKSs7compareERKSs
   fun:_ZStneIcSt11char_traitsIcESaIcEEbRKSbIT_T0_T1_ES8_
   fun:_Z7TestBSTb
   fun:main
}
{
   <insert a suppression name here>
   Memcheck:Cond
   fun:_ZNKSs7compareERKSs
}
{
   <insert a suppression name here>
   Memcheck:Cond
   fun:_ZNKSs7compareERKSs
}
{
   <insert a suppression name here>
   Memcheck:Cond
   fun:_ZNKSs7compareERKSs
}
{
   <insert a suppression name here>
   Memcheck:Cond
   fun:_ZNKSs7compareERKSs
}
{
   <insert a suppression name here>
   Memcheck:Cond
   fun:_ZNKSs7compareERKSs
   fun:_ZStneIcSt11char_traitsIcESaIcEEbRKSbIT_T0_T1_ES8_
   fun:_Z7TestBSTb
   fun:main
}
{
   <insert a suppression name here>
   Memcheck:Cond
   fun:strlen
   fun:_ZNSsC1EPKcRKSaIcE
   fun:_Z11generateKeyv
   fun:_Z7TestBSTb
   fun:main
}
{
   <insert a suppression name here>
   Memcheck:Cond
   fun:_ZNKSs7compareERKSs
   fun:_ZStneIcSt11char_traitsIcESaIcEEbRKSbIT_T0_T1_ES8_
}
{
   <insert a suppression name here>
   Memcheck:Cond
   fun:strlen
   fun:_ZNSsC1EPKcRKSaIcE
   fun:_Z11generateKeyv
   fun:_Z7TestBSTb
   fun:main
}
{
   <insert a suppression name here>
   Memcheck:Cond
   fun:_ZNKSs7compareERKSs
}
{
   <insert a suppression name here>
   Memcheck:Cond
   fun:_ZNKSs7compareERKSs
   fun:_ZStltIcSt11char_traitsIcESaIcEEbRKSbIT_T0_T1_ES8_
}
{
   <insert a suppression name here>
   Memcheck:Cond
   fun:_ZNKSs7compareERKSs
}
{
   <insert a suppression name here>
   Memcheck:Cond
   fun:_ZNKSs7compareERKSs
}
{
   <insert a suppression name here>
   Memcheck:Cond
   fun:strlen
   fun:_ZNSsC1EPKcRKSaIcE
   fun:_Z11generateKeyv
   fun:_Z14TestLinkedListb
   fun:main
}
{
   <insert a suppression name here>
   Memcheck:Cond
   fun:_ZNKSs7compareERKSs
   fun:_ZStneIcSt11char_traitsIcESaIcEEbRKSbIT_T0_T1_ES8_
   fun:_Z14TestLinkedListb
   fun:main
}
{
   <insert a suppression name here>
   Memcheck:Cond
   fun:_ZNKSs7compareERKSs
   fun:_ZStneIcSt11char_traitsIcESaIcEEbRKSbIT_T0_T1_ES8_
   fun:_Z14TestLinkedListb
   fun:main
}
{
   <insert a suppression name here>
   Memcheck:Cond
   fun:_ZNKSs7compareERKSs
   fun:_ZStneIcSt11char_traitsIcESaIcEEbRKSbIT_T0_T1_ES8_
   fun:_Z12CompareListsRK10LinkedListRSt4listISsSaISsEE
   fun:_Z14TestLinkedListb
   fun:main
}
{
   <insert a suppression name here>
   Memcheck:Cond
   fun:_ZNKSs7compareERKSs
   fun:_ZStneIcSt11char_traitsIcESaIcEEbRKSbIT_T0_T1_ES8_
   fun:_Z12CompareListsRK10LinkedListRSt4listISsSaISsEE
   fun:_Z14TestLinkedListb
   fun:main
}
{
   <insert a suppression name here>
   Memcheck:Cond
   fun:_ZNKSs7compareERKSs
   fun:_ZStneIcSt11char_traitsIcESaIcEEbRKSbIT_T0_T1_ES8_
   fun:_Z12CompareListsRK10LinkedListRSt4listISsSaISsEE
   fun:_Z14TestLinkedListb
   fun:main
}
{
   <insert a suppression name here>
   Memcheck:Cond
   fun:_ZNKSs7compareERKSs
   fun:_ZStneIcSt11char_traitsIcESaIcEEbRKSbIT_T0_T1_ES8_
   fun:_Z12CompareListsRK10LinkedListRSt4listISsSaISsEE
   fun:_Z14TestLinkedListb
   fun:main
}
{
   <insert a suppression name here>
   Memcheck:Cond
   fun:_ZNKSs7compareERKSs
   fun:_ZStneIcSt11char_traitsIcESaIcEEbRKSbIT_T0_T1_ES8_
   fun:_Z12CompareListsRK10LinkedListRSt4listISsSaISsEE
   fun:_Z14TestLinkedListb
   fun:main
}
{
   <insert a suppression name here>
   Memcheck:Cond
   fun:_ZNKSs7compareERKSs
   fun:_ZSteqIcSt11char_traitsIcESaIcEEbRKSbIT_T0_T1_ES8_
}
{
   <insert a suppression name here>
   Memcheck:Cond
   fun:_ZNKSs7compareERKSs
   fun:_ZStneIcSt11char_traitsIcESaIcEEbRKSbIT_T0_T1_ES8_
   fun:_Z14TestLinkedListb
   fun:main
}
{
   <insert a suppression name here>
   Memcheck:Cond
   fun:_ZNKSs7compareERKSs
   fun:_ZSteqIcSt11char_traitsIcESaIcEEbRKSbIT_T0_T1_ES8_
}
{
   <insert a suppression name here>
   Memcheck:Cond
   fun:strlen
   fun:_ZNSsC1EPKcRKSaIcE
   fun:_Z11generateKeyv
   fun:_Z14TestLinkedListb
   fun:main
}
{
   <insert a suppression name here>
   Memcheck:Cond
   fun:_ZNKSs7compareERKSs
   fun:_ZSteqIcSt11char_traitsIcESaIcEEbRKSbIT_T0_T1_ES8_
}
{
   <insert a suppression name here>
   Memcheck:Cond
   fun:_ZNKSs7compareERKSs
   fun:_ZSteqIcSt11char_traitsIcESaIcEEbRKSbIT_T0_T1_ES8_
   fun:_ZSt6__findISt14_List_iteratorISsESsET_S2_S2_RKT0_St18input_iterator_tag
   fun:_ZSt4findISt14_List_iteratorISsESsET_S2_S2_RKT0_
   fun:_Z14TestLinkedListb
   fun:main
}
{
   <insert a suppression name here>
   Memcheck:Cond
   fun:_ZNKSs7compareERKSs
   fun:_ZStneIcSt11char_traitsIcESaIcEEbRKSbIT_T0_T1_ES8_
   fun:_Z14TestLinkedListb
   fun:main
}
{
   <insert a suppression name here>
   Memcheck:Cond
   fun:_ZNKSs7compareERKSs
   fun:_ZSteqIcSt11char_traitsIcESaIcEEbRKSbIT_T0_T1_ES8_
}
{
   <insert a suppression name here>
   Memcheck:Cond
   fun:strlen
   fun:_ZNSsC1EPKcRKSaIcE
   fun:_Z11generateKeyv
   fun:_Z7TestBSTb
   fun:main
}
{
   <insert a suppression name here>
   Memcheck:Cond
   fun:strlen
   fun:_ZNSsC1EPKcRKSaIcE
   fun:_Z11generateKeyv
   fun:_Z7TestBSTb
   fun:main
}
{
   <insert a suppression name here>
   Memcheck:Cond
   fun:strlen
   fun:_ZNSsC1EPKcRKSaIcE
   fun:_Z11generateKeyv
   fun:_Z7TestBSTb
   fun:main
}
{
   <insert a suppression name here>
   Memcheck:Cond
   fun:bcmp
   fun:_ZNSt11char_traitsIcE7compareEPKcS2_j
   fun:_ZSteqIcEN9__gnu_cxx11__enable_ifIXsrSt9__is_charIT_E7__valueEbE6__typeERKSbIS3_St11char_traitsIS3_ESaIS3_EESC_
   fun:_ZStneIcSt11char_traitsIcESaIcEEbRKSbIT_T0_T1_ES8_
   fun:_ZN3tut12_GLOBAL__N_113ensure_equalsISsSsEEvPKcRKT0_RKT_
   fun:_ZN7BSTTest7initBSTER3BST
   fun:_ZN3tut11test_objectI7BSTTestE4testILi2EEEvv
   fun:_ZN3tut10test_groupI7BSTTestLi50EE13run_test_seh_EMNS_11test_objectIS1_EEFvvERNS2_11safe_holderIS4_EERSs
   fun:_ZN3tut10test_groupI7BSTTestLi50EE9run_test_ERKSt17_Rb_tree_iteratorISt4pairIKiMNS_11test_objectIS1_EEFvvEEERNS2_11safe_holderIS7_EE
   fun:_ZN3tut10test_groupI7BSTTestLi50EE8run_nextEv
   fun:_ZNK3tut11test_runner23run_all_tests_in_group_ESt23_Rb_tree_const_iteratorISt4pairIKSsPNS_10group_baseEEE
   fun:_ZNK3tut11test_runner9run_testsEv
}
{
   <insert a suppression name here>
   Memcheck:Cond
   fun:bcmp
   fun:_ZNSt11char_traitsIcE7compareEPKcS2_j
   fun:_ZSteqIcEN9__gnu_cxx11__enable_ifIXsrSt9__is_charIT_E7__valueEbE6__typeERKSbIS3_St11char_traitsIS3_ESaIS3_EESC_
   fun:_ZNK10LinkedList4FindERKSsP6LLNode
   fun:_ZN3tut11test_objectI14LinkedListTestE4testILi8EEEvv
   fun:_ZN3tut10test_groupI14LinkedListTestLi50EE13run_test_seh_EMNS_11test_objectIS1_EEFvvERNS2_11safe_holderIS4_EERSs
   fun:_ZN3tut10test_groupI14LinkedListTestLi50EE9run_test_ERKSt17_Rb_tree_iteratorISt4pairIKiMNS_11test_objectIS1_EEFvvEEERNS2_11safe_holderIS7_EE
   fun:_ZN3tut10test_groupI14LinkedListTestLi50EE8run_nextEv
   fun:_ZNK3tut11test_runner23run_all_tests_in_group_ESt23_Rb_tree_const_iteratorISt4pairIKSsPNS_10group_baseEEE
   fun:_ZNK3tut11test_runner9run_testsEv
   fun:_Z3runRKSsi
   fun:main
}
{
   <insert a suppression name here>
   Memcheck:Cond
   fun:bcmp
   fun:_ZNSt11char_traitsIcE7compareEPKcS2_j
   fun:_ZSteqIcEN9__gnu_cxx11__enable_ifIXsrSt9__is_charIT_E7__valueEbE6__typeERKSbIS3_St11char_traitsIS3_ESaIS3_EESC_
   fun:_ZSt6__findISt14_List_iteratorISsESsET_S2_S2_RKT0_St18input_iterator_tag
   fun:_ZSt4findISt14_List_iteratorISsESsET_S2_S2_RKT0_
   fun:_ZN3tut11test_objectI14LinkedListTestE4testILi9EEEvv
   fun:_ZN3tut10test_groupI14LinkedListTestLi50EE13run_test_seh_EMNS_11test_objectIS1_EEFvvERNS2_11safe_holderIS4_EERSs
   fun:_ZN3tut10test_groupI14LinkedListTestLi50EE9run_test_ERKSt17_Rb_tree_iteratorISt4pairIKiMNS_11test_objectIS1_EEFvvEEERNS2_11safe_holderIS7_EE
   fun:_ZN3tut10test_groupI14LinkedListTestLi50EE8run_nextEv
   fun:_ZNK3tut11test_runner23run_all_tests_in_group_ESt23_Rb_tree_const_iteratorISt4pairIKSsPNS_10group_baseEEE
   fun:_ZNK3tut11test_runner9run_testsEv
   fun:_Z3runRKSsi
}
{
   <insert a suppression name here>
   Memcheck:Cond
   fun:bcmp
   fun:_ZNSt11char_traitsIcE7compareEPKcS2_j
   fun:_ZSteqIcEN9__gnu_cxx11__enable_ifIXsrSt9__is_charIT_E7__valueEbE6__typeERKSbIS3_St11char_traitsIS3_ESaIS3_EESC_
   fun:_ZN3tut11test_objectI14LinkedListTestE4testILi9EEEvv
   fun:_ZN3tut10test_groupI14LinkedListTestLi50EE13run_test_seh_EMNS_11test_objectIS1_EEFvvERNS2_11safe_holderIS4_EERSs
   fun:_ZN3tut10test_groupI14LinkedListTestLi50EE9run_test_ERKSt17_Rb_tree_iteratorISt4pairIKiMNS_11test_objectIS1_EEFvvEEERNS2_11safe_holderIS7_EE
   fun:_ZN3tut10test_groupI14LinkedListTestLi50EE8run_nextEv
   fun:_ZNK3tut11test_runner23run_all_tests_in_group_ESt23_Rb_tree_const_iteratorISt4pairIKSsPNS_10group_baseEEE
   fun:_ZNK3tut11test_runner9run_testsEv
   fun:_Z3runRKSsi
   fun:main
}
